(lp0
(lp1
(dp2
S'series'
p3
S'E1'
p4
sS'id'
p5
I0
sS'name'
p6
S'Acer'
p7
sS'pc_type'
p8
S'Notebook'
p9
sa(dp10
g3
S'RE13'
p11
sg5
I1
sg6
S'HP'
p12
sg8
S'PC'
p13
sa(dp14
g3
S'RET13'
p15
sg5
I2
sg6
S'ASUS'
p16
sg8
S'Notebook'
p17
saa(lp18
(dp19
S'id_comp'
p20
I0
sS'memory_module'
p21
S'2'
p22
sS'hdd'
p23
S'750'
p24
sS'video_adapter'
p25
NsS'id'
p26
I0
sa(dp27
g20
I0
sg21
S'4'
p28
sg23
S'1000'
p29
sg25
S'nvidia'
p30
sg26
I1
sa(dp31
g20
I1
sg21
g22
sg23
S'250'
p32
sg25
S'amd'
p33
sg26
I2
sa(dp34
g20
I2
sg21
g28
sg23
S'500'
p35
sg25
Nsg26
I3
saa.